target datalayout = "e-m:e-p270:32:32-p271:32:32-p272:64:64-i64:64-i128:128-f80:128-n8:16:32:64-S128"
target triple = "x86_64-pc-linux-gnu"

%class.ImageFileReaderTable = type { i32, i32, ptr }

; Function Attrs: mustprogress nounwind uwtable
define hidden void @_ZN20ImageFileReaderTableC2Ev(ptr noundef nonnull align 8 dereferenceable(16) %0) unnamed_addr #0 align 2 {
  %2 = alloca ptr, align 8
  store ptr %0, ptr %2, align 8
  %3 = load ptr, ptr %2, align 8
  %4 = getelementptr inbounds %class.ImageFileReaderTable, ptr %3, i32 0, i32 0
  store i32 0, ptr %4, align 8
  %5 = getelementptr inbounds %class.ImageFileReaderTable, ptr %3, i32 0, i32 1
  store i32 8, ptr %5, align 4
  %6 = getelementptr inbounds %class.ImageFileReaderTable, ptr %3, i32 0, i32 1
  %7 = load i32, ptr %6, align 4
  %8 = zext i32 %7 to i64
  %9 = call noalias ptr @calloc(i64 noundef %8, i64 noundef 8) #16
  %10 = getelementptr inbounds %class.ImageFileReaderTable, ptr %3, i32 0, i32 2
  store ptr %9, ptr %10, align 8
  ret void
}