; Function Attrs: mustprogress nofree nounwind willreturn memory(argmem: write, inaccessiblemem: readwrite) uwtable
define hidden void @_ZN20ImageFileReaderTableC2Ev(ptr nocapture noundef nonnull writeonly align 8 dereferenceable(16) %0) unnamed_addr #11 align 2 {
  store i32 0, ptr %0, align 8
  %2 = getelementptr inbounds i8, ptr %0, i64 4
  store i32 8, ptr %2, align 4
  %3 = tail call noalias dereferenceable_or_null(64) ptr @calloc(i64 noundef 8, i64 noundef 8) #25
  %4 = getelementptr inbounds i8, ptr %0, i64 8
  store ptr %3, ptr %4, align 8
  ret void
}